target datalayout = "e-m:e-p270:32:32-p271:32:32-p272:64:64-i64:64-i128:128-f80:128-n8:16:32:64-S128"
target triple = "x86_64-pc-linux-gnu"

%"class.std::vector.8" = type { %"struct.std::_Vector_base.9" }
%"struct.std::_Vector_base.9" = type { %"struct.std::_Vector_base<int, std::allocator<int>>::_Vector_impl" }
%"struct.std::_Vector_base<int, std::allocator<int>>::_Vector_impl" = type { %"struct.std::_Vector_base<int, std::allocator<int>>::_Vector_impl_data" }
%"struct.std::_Vector_base<int, std::allocator<int>>::_Vector_impl_data" = type { ptr, ptr, ptr }
%"struct.(anonymous namespace)::OnehotDatabase" = type { ptr, ptr, i8, i8, %"struct.Yosys::FfInitVals", %"class.Yosys::hashlib::dict.68", %"class.Yosys::hashlib::dict.75", %"class.Yosys::hashlib::pool.82" }
%"struct.Yosys::FfInitVals" = type { ptr, %"class.Yosys::hashlib::dict.61" }
%"class.Yosys::hashlib::dict.61" = type <{ %"class.std::vector.8", %"class.std::vector.62", [8 x i8] }>
%"class.std::vector.62" = type { %"struct.std::_Vector_base.63" }
%"struct.std::_Vector_base.63" = type { %"struct.std::_Vector_base<Yosys::hashlib::dict<Yosys::RTLIL::SigBit, std::pair<Yosys::RTLIL::State, Yosys::RTLIL::SigBit>>::entry_t, std::allocator<Yosys::hashlib::dict<Yosys::RTLIL::SigBit, std::pair<Yosys::RTLIL::State, Yosys::RTLIL::SigBit>>::entry_t>>::_Vector_impl" }
%"struct.std::_Vector_base<Yosys::hashlib::dict<Yosys::RTLIL::SigBit, std::pair<Yosys::RTLIL::State, Yosys::RTLIL::SigBit>>::entry_t, std::allocator<Yosys::hashlib::dict<Yosys::RTLIL::SigBit, std::pair<Yosys::RTLIL::State, Yosys::RTLIL::SigBit>>::entry_t>>::_Vector_impl" = type { %"struct.std::_Vector_base<Yosys::hashlib::dict<Yosys::RTLIL::SigBit, std::pair<Yosys::RTLIL::State, Yosys::RTLIL::SigBit>>::entry_t, std::allocator<Yosys::hashlib::dict<Yosys::RTLIL::SigBit, std::pair<Yosys::RTLIL::State, Yosys::RTLIL::SigBit>>::entry_t>>::_Vector_impl_data" }
%"struct.std::_Vector_base<Yosys::hashlib::dict<Yosys::RTLIL::SigBit, std::pair<Yosys::RTLIL::State, Yosys::RTLIL::SigBit>>::entry_t, std::allocator<Yosys::hashlib::dict<Yosys::RTLIL::SigBit, std::pair<Yosys::RTLIL::State, Yosys::RTLIL::SigBit>>::entry_t>>::_Vector_impl_data" = type { ptr, ptr, ptr }
%"class.Yosys::hashlib::dict.68" = type <{ %"class.std::vector.8", %"class.std::vector.69", [8 x i8] }>
%"class.std::vector.69" = type { %"struct.std::_Vector_base.70" }
%"struct.std::_Vector_base.70" = type { %"struct.std::_Vector_base<Yosys::hashlib::dict<Yosys::RTLIL::SigSpec, Yosys::hashlib::pool<Yosys::RTLIL::SigSpec>>::entry_t, std::allocator<Yosys::hashlib::dict<Yosys::RTLIL::SigSpec, Yosys::hashlib::pool<Yosys::RTLIL::SigSpec>>::entry_t>>::_Vector_impl" }
%"struct.std::_Vector_base<Yosys::hashlib::dict<Yosys::RTLIL::SigSpec, Yosys::hashlib::pool<Yosys::RTLIL::SigSpec>>::entry_t, std::allocator<Yosys::hashlib::dict<Yosys::RTLIL::SigSpec, Yosys::hashlib::pool<Yosys::RTLIL::SigSpec>>::entry_t>>::_Vector_impl" = type { %"struct.std::_Vector_base<Yosys::hashlib::dict<Yosys::RTLIL::SigSpec, Yosys::hashlib::pool<Yosys::RTLIL::SigSpec>>::entry_t, std::allocator<Yosys::hashlib::dict<Yosys::RTLIL::SigSpec, Yosys::hashlib::pool<Yosys::RTLIL::SigSpec>>::entry_t>>::_Vector_impl_data" }
%"struct.std::_Vector_base<Yosys::hashlib::dict<Yosys::RTLIL::SigSpec, Yosys::hashlib::pool<Yosys::RTLIL::SigSpec>>::entry_t, std::allocator<Yosys::hashlib::dict<Yosys::RTLIL::SigSpec, Yosys::hashlib::pool<Yosys::RTLIL::SigSpec>>::entry_t>>::_Vector_impl_data" = type { ptr, ptr, ptr }
%"class.Yosys::hashlib::dict.75" = type <{ %"class.std::vector.8", %"class.std::vector.76", [8 x i8] }>
%"class.std::vector.76" = type { %"struct.std::_Vector_base.77" }
%"struct.std::_Vector_base.77" = type { %"struct.std::_Vector_base<Yosys::hashlib::dict<Yosys::RTLIL::SigSpec, bool>::entry_t, std::allocator<Yosys::hashlib::dict<Yosys::RTLIL::SigSpec, bool>::entry_t>>::_Vector_impl" }
%"struct.std::_Vector_base<Yosys::hashlib::dict<Yosys::RTLIL::SigSpec, bool>::entry_t, std::allocator<Yosys::hashlib::dict<Yosys::RTLIL::SigSpec, bool>::entry_t>>::_Vector_impl" = type { %"struct.std::_Vector_base<Yosys::hashlib::dict<Yosys::RTLIL::SigSpec, bool>::entry_t, std::allocator<Yosys::hashlib::dict<Yosys::RTLIL::SigSpec, bool>::entry_t>>::_Vector_impl_data" }
%"struct.std::_Vector_base<Yosys::hashlib::dict<Yosys::RTLIL::SigSpec, bool>::entry_t, std::allocator<Yosys::hashlib::dict<Yosys::RTLIL::SigSpec, bool>::entry_t>>::_Vector_impl_data" = type { ptr, ptr, ptr }
%"class.Yosys::hashlib::pool.82" = type <{ %"class.std::vector.8", %"class.std::vector.83", [8 x i8] }>
%"class.std::vector.83" = type { %"struct.std::_Vector_base.84" }
%"struct.std::_Vector_base.84" = type { %"struct.std::_Vector_base<Yosys::hashlib::pool<Yosys::RTLIL::SigSpec>::entry_t, std::allocator<Yosys::hashlib::pool<Yosys::RTLIL::SigSpec>::entry_t>>::_Vector_impl" }
%"struct.std::_Vector_base<Yosys::hashlib::pool<Yosys::RTLIL::SigSpec>::entry_t, std::allocator<Yosys::hashlib::pool<Yosys::RTLIL::SigSpec>::entry_t>>::_Vector_impl" = type { %"struct.std::_Vector_base<Yosys::hashlib::pool<Yosys::RTLIL::SigSpec>::entry_t, std::allocator<Yosys::hashlib::pool<Yosys::RTLIL::SigSpec>::entry_t>>::_Vector_impl_data" }
%"struct.std::_Vector_base<Yosys::hashlib::pool<Yosys::RTLIL::SigSpec>::entry_t, std::allocator<Yosys::hashlib::pool<Yosys::RTLIL::SigSpec>::entry_t>>::_Vector_impl_data" = type { ptr, ptr, ptr }

@.str.53 = private unnamed_addr constant [5 x i8] c"true\00", align 1
@.str.54 = private unnamed_addr constant [6 x i8] c"false\00", align 1
@.str.76 = private unnamed_addr constant [28 x i8] c"** ONEHOT QUERY START (%s)\0A\00", align 1
@.str.77 = private unnamed_addr constant [29 x i8] c"** ONEHOT QUERY RESULT = %s\0A\00", align 1

; Function Attrs: mustprogress uwtable
define internal noundef zeroext i1 @_ZN12_GLOBAL__N_114OnehotDatabase5queryERKN5Yosys5RTLIL7SigSpecE(ptr noundef nonnull align 8 dereferenceable(256) %0, ptr noundef nonnull align 8 dereferenceable(56) %1) #4 align 2 {
  %3 = alloca ptr, align 8
  %4 = alloca ptr, align 8
  %5 = alloca i8, align 1
  %6 = alloca i8, align 1
  store ptr %0, ptr %3, align 8, !tbaa !157
  store ptr %1, ptr %4, align 8, !tbaa !109
  %7 = load ptr, ptr %3, align 8
  call void @llvm.lifetime.start.p0(i64 1, ptr %5) #3
  store i8 1, ptr %5, align 1, !tbaa !29
  call void @llvm.lifetime.start.p0(i64 1, ptr %6) #3
  store i8 1, ptr %6, align 1, !tbaa !29
  %8 = getelementptr inbounds nuw %"struct.(anonymous namespace)::OnehotDatabase", ptr %7, i32 0, i32 2
  %9 = load i8, ptr %8, align 8, !tbaa !41, !range !39, !noundef !40
  %10 = trunc i8 %9 to i1
  br i1 %10, label %11, label %14

11:                                               ; preds = %2
  %12 = load ptr, ptr %4, align 8, !tbaa !109
  %13 = call noundef ptr @_ZN5Yosys10log_signalERKNS_5RTLIL7SigSpecEb(ptr noundef nonnull align 8 dereferenceable(56) %12, i1 noundef zeroext true)
  call void (ptr, ...) @_ZN5Yosys3logEPKcz(ptr noundef @.str.76, ptr noundef %13)
  br label %14

14:                                               ; preds = %11, %2
  %15 = getelementptr inbounds nuw %"struct.(anonymous namespace)::OnehotDatabase", ptr %7, i32 0, i32 3
  %16 = load i8, ptr %15, align 1, !tbaa !160, !range !39, !noundef !40
  %17 = trunc i8 %16 to i1
  br i1 %17, label %19, label %18

18:                                               ; preds = %14
  call void @_ZN12_GLOBAL__N_114OnehotDatabase10initializeEv(ptr noundef nonnull align 8 dereferenceable(256) %7)
  br label %19

19:                                               ; preds = %18, %14
  %20 = load ptr, ptr %4, align 8, !tbaa !109
  call void @_ZN12_GLOBAL__N_114OnehotDatabase12query_workerERKN5Yosys5RTLIL7SigSpecERbS6_i(ptr noundef nonnull align 8 dereferenceable(256) %7, ptr noundef nonnull align 8 dereferenceable(56) %20, ptr noundef nonnull align 1 dereferenceable(1) %5, ptr noundef nonnull align 1 dereferenceable(1) %6, i32 noundef 3)
  %21 = getelementptr inbounds nuw %"struct.(anonymous namespace)::OnehotDatabase", ptr %7, i32 0, i32 2
  %22 = load i8, ptr %21, align 8, !tbaa !41, !range !39, !noundef !40
  %23 = trunc i8 %22 to i1
  br i1 %23, label %24, label %28

24:                                               ; preds = %19
  %25 = load i8, ptr %5, align 1, !tbaa !29, !range !39, !noundef !40
  %26 = trunc i8 %25 to i1
  %27 = select i1 %26, ptr @.str.53, ptr @.str.54
  call void (ptr, ...) @_ZN5Yosys3logEPKcz(ptr noundef @.str.77, ptr noundef %27)
  br label %28

28:                                               ; preds = %24, %19
  %29 = load i8, ptr %6, align 1, !tbaa !29, !range !39, !noundef !40
  %30 = trunc i8 %29 to i1
  br i1 %30, label %38, label %31

31:                                               ; preds = %28
  %32 = load i8, ptr %5, align 1, !tbaa !29, !range !39, !noundef !40
  %33 = trunc i8 %32 to i1
  %34 = getelementptr inbounds nuw %"struct.(anonymous namespace)::OnehotDatabase", ptr %7, i32 0, i32 6
  %35 = load ptr, ptr %4, align 8, !tbaa !109
  %36 = call noundef nonnull align 1 dereferenceable(1) ptr @_ZN5Yosys7hashlib4dictINS_5RTLIL7SigSpecEbNS0_8hash_opsIS3_EEEixERKS3_(ptr noundef nonnull align 8 dereferenceable(49) %34, ptr noundef nonnull align 8 dereferenceable(56) %35)
  %37 = zext i1 %33 to i8
  store i8 %37, ptr %36, align 1, !tbaa !29
  br label %38

38:                                               ; preds = %31, %28
  %39 = load i8, ptr %5, align 1, !tbaa !29, !range !39, !noundef !40
  %40 = trunc i8 %39 to i1
  call void @llvm.lifetime.end.p0(i64 1, ptr %6) #3
  call void @llvm.lifetime.end.p0(i64 1, ptr %5) #3
  ret i1 %40
}