; Function Attrs: mustprogress uwtable
define internal fastcc noundef zeroext i1 @_ZN12_GLOBAL__N_114OnehotDatabase5queryERKN5Yosys5RTLIL7SigSpecE(ptr noundef nonnull align 8 dereferenceable(256) %0, ptr noundef nonnull align 8 dereferenceable(56) %1) unnamed_addr #5 align 2 {
  %3 = alloca i8, align 1
  %4 = alloca i8, align 1
  call void @llvm.lifetime.start.p0(i64 1, ptr nonnull %3) #26
  store i8 1, ptr %3, align 1, !tbaa !91
  call void @llvm.lifetime.start.p0(i64 1, ptr nonnull %4) #26
  store i8 1, ptr %4, align 1, !tbaa !91
  %5 = getelementptr inbounds nuw i8, ptr %0, i64 16
  %6 = load i8, ptr %5, align 8, !tbaa !71, !range !92, !noundef !93
  %7 = trunc nuw i8 %6 to i1
  br i1 %7, label %8, label %10

8:                                                ; preds = %2
  %9 = tail call noundef ptr @_ZN5Yosys10log_signalERKNS_5RTLIL7SigSpecEb(ptr noundef nonnull align 8 dereferenceable(56) %1, i1 noundef zeroext true)
  tail call void (ptr, ...) @_ZN5Yosys3logEPKcz(ptr noundef nonnull @.str.76, ptr noundef %9)
  br label %10

10:                                               ; preds = %8, %2
  %11 = getelementptr inbounds nuw i8, ptr %0, i64 17
  %12 = load i8, ptr %11, align 1, !tbaa !70, !range !92, !noundef !93
  %13 = trunc nuw i8 %12 to i1
  br i1 %13, label %15, label %14

14:                                               ; preds = %10
  tail call fastcc void @_ZN12_GLOBAL__N_114OnehotDatabase10initializeEv(ptr noundef nonnull align 8 dereferenceable(256) %0)
  br label %15

15:                                               ; preds = %14, %10
  call fastcc void @_ZN12_GLOBAL__N_114OnehotDatabase12query_workerERKN5Yosys5RTLIL7SigSpecERbS6_i(ptr noundef nonnull align 8 dereferenceable(256) %0, ptr noundef nonnull align 8 dereferenceable(56) %1, ptr noundef nonnull align 1 dereferenceable(1) %3, ptr noundef nonnull align 1 dereferenceable(1) %4, i32 noundef 3)
  %16 = load i8, ptr %5, align 8, !tbaa !71, !range !92, !noundef !93
  %17 = trunc nuw i8 %16 to i1
  %.pre.pre = load i8, ptr %3, align 1, !tbaa !91, !range !92
  br i1 %17, label %18, label %21

18:                                               ; preds = %15
  %19 = trunc nuw i8 %.pre.pre to i1
  %20 = select i1 %19, ptr @.str.53, ptr @.str.54
  tail call void (ptr, ...) @_ZN5Yosys3logEPKcz(ptr noundef nonnull @.str.77, ptr noundef nonnull %20)
  br label %21

21:                                               ; preds = %18, %15
  %22 = load i8, ptr %4, align 1, !tbaa !91, !range !92, !noundef !93
  %23 = trunc nuw i8 %22 to i1
  br i1 %23, label %27, label %24

24:                                               ; preds = %21
  %25 = getelementptr inbounds nuw i8, ptr %0, i64 144
  %26 = tail call noundef nonnull align 1 dereferenceable(1) ptr @_ZN5Yosys7hashlib4dictINS_5RTLIL7SigSpecEbNS0_8hash_opsIS3_EEEixERKS3_(ptr noundef nonnull align 8 dereferenceable(49) %25, ptr noundef nonnull align 8 dereferenceable(56) %1)
  store i8 %.pre.pre, ptr %26, align 1, !tbaa !91
  br label %27

27:                                               ; preds = %24, %21
  %28 = trunc nuw i8 %.pre.pre to i1
  call void @llvm.lifetime.end.p0(i64 1, ptr nonnull %4) #26
  call void @llvm.lifetime.end.p0(i64 1, ptr nonnull %3) #26
  ret i1 %28
}